(lp0
S'ea388ede5d3b11e7b4d4784f4375656e'
p1
aS'8e545a0f5f1f11e7a05d784f4375656e'
p2
aS'9608ad785f2011e78bf2784f4375656e'
p3
aS'9689ed785f2211e7876e784f4375656e'
p4
aS'0eab3a005f2311e7b5b1784f4375656e'
p5
a.